target datalayout = "e-m:e-p270:32:32-p271:32:32-p272:64:64-i64:64-i128:128-f80:128-n8:16:32:64-S128"
target triple = "x86_64-pc-linux-gnu"

%struct.cnfa = type { i32, i32, i32, i32, i32, [2 x i16], [2 x i16], ptr, ptr, ptr, i32, i32 }
%struct.carc = type { i16, i32 }
%struct.regex_arc_t = type { i32, i32 }

; Function Attrs: nounwind uwtable
define internal void @traverse_lacons(ptr noundef %0, i32 noundef %1, ptr noundef %2, ptr noundef %3, i32 noundef %4) #0 {
  %6 = alloca ptr, align 8
  %7 = alloca i32, align 4
  %8 = alloca ptr, align 8
  %9 = alloca ptr, align 8
  %10 = alloca i32, align 4
  %11 = alloca ptr, align 8
  %12 = alloca i32, align 4
  store ptr %0, ptr %6, align 8
  store i32 %1, ptr %7, align 4
  store ptr %2, ptr %8, align 8
  store ptr %3, ptr %9, align 8
  store i32 %4, ptr %10, align 4
  call void @llvm.lifetime.start.p0(i64 8, ptr %11) #3
  call void @check_stack_depth()
  %13 = load ptr, ptr %6, align 8
  %14 = getelementptr inbounds nuw %struct.cnfa, ptr %13, i32 0, i32 8
  %15 = load ptr, ptr %14, align 8
  %16 = load i32, ptr %7, align 4
  %17 = sext i32 %16 to i64
  %18 = getelementptr inbounds ptr, ptr %15, i64 %17
  %19 = load ptr, ptr %18, align 8
  store ptr %19, ptr %11, align 8
  br label %20

20:                                               ; preds = %70, %5
  %21 = load ptr, ptr %11, align 8
  %22 = getelementptr inbounds nuw %struct.carc, ptr %21, i32 0, i32 0
  %23 = load i16, ptr %22, align 4
  %24 = sext i16 %23 to i32
  %25 = icmp ne i32 %24, -1
  br i1 %25, label %26, label %73

26:                                               ; preds = %20
  %27 = load ptr, ptr %11, align 8
  %28 = getelementptr inbounds nuw %struct.carc, ptr %27, i32 0, i32 0
  %29 = load i16, ptr %28, align 4
  %30 = sext i16 %29 to i32
  %31 = load ptr, ptr %6, align 8
  %32 = getelementptr inbounds nuw %struct.cnfa, ptr %31, i32 0, i32 1
  %33 = load i32, ptr %32, align 4
  %34 = icmp slt i32 %30, %33
  br i1 %34, label %35, label %61

35:                                               ; preds = %26
  call void @llvm.lifetime.start.p0(i64 4, ptr %12) #3
  %36 = load ptr, ptr %8, align 8
  %37 = load i32, ptr %36, align 4
  %38 = add i32 %37, 1
  store i32 %38, ptr %36, align 4
  store i32 %37, ptr %12, align 4
  %39 = load i32, ptr %12, align 4
  %40 = load i32, ptr %10, align 4
  %41 = icmp slt i32 %39, %40
  br i1 %41, label %42, label %60

42:                                               ; preds = %35
  %43 = load ptr, ptr %11, align 8
  %44 = getelementptr inbounds nuw %struct.carc, ptr %43, i32 0, i32 0
  %45 = load i16, ptr %44, align 4
  %46 = sext i16 %45 to i32
  %47 = load ptr, ptr %9, align 8
  %48 = load i32, ptr %12, align 4
  %49 = sext i32 %48 to i64
  %50 = getelementptr inbounds %struct.regex_arc_t, ptr %47, i64 %49
  %51 = getelementptr inbounds nuw %struct.regex_arc_t, ptr %50, i32 0, i32 0
  store i32 %46, ptr %51, align 4
  %52 = load ptr, ptr %11, align 8
  %53 = getelementptr inbounds nuw %struct.carc, ptr %52, i32 0, i32 1
  %54 = load i32, ptr %53, align 4
  %55 = load ptr, ptr %9, align 8
  %56 = load i32, ptr %12, align 4
  %57 = sext i32 %56 to i64
  %58 = getelementptr inbounds %struct.regex_arc_t, ptr %55, i64 %57
  %59 = getelementptr inbounds nuw %struct.regex_arc_t, ptr %58, i32 0, i32 1
  store i32 %54, ptr %59, align 4
  br label %60

60:                                               ; preds = %42, %35
  call void @llvm.lifetime.end.p0(i64 4, ptr %12) #3
  br label %69

61:                                               ; preds = %26
  %62 = load ptr, ptr %6, align 8
  %63 = load ptr, ptr %11, align 8
  %64 = getelementptr inbounds nuw %struct.carc, ptr %63, i32 0, i32 1
  %65 = load i32, ptr %64, align 4
  %66 = load ptr, ptr %8, align 8
  %67 = load ptr, ptr %9, align 8
  %68 = load i32, ptr %10, align 4
  call void @traverse_lacons(ptr noundef %62, i32 noundef %65, ptr noundef %66, ptr noundef %67, i32 noundef %68)
  br label %69

69:                                               ; preds = %61, %60
  br label %70

70:                                               ; preds = %69
  %71 = load ptr, ptr %11, align 8
  %72 = getelementptr inbounds nuw %struct.carc, ptr %71, i32 1
  store ptr %72, ptr %11, align 8
  br label %20, !llvm.loop !4

73:                                               ; preds = %20
  call void @llvm.lifetime.end.p0(i64 8, ptr %11) #3
  ret void
}