; Function Attrs: nounwind uwtable
define internal fastcc void @traverse_lacons(ptr noundef readonly captures(none) %0, i32 noundef %1, ptr noundef nonnull captures(none) %2, ptr noundef writeonly captures(none) %3, i32 noundef range(i32 0, -2147483648) %4) unnamed_addr #2 {
  tail call void @check_stack_depth() #5
  %6 = getelementptr inbounds nuw i8, ptr %0, i64 40
  %7 = load ptr, ptr %6, align 8
  %8 = sext i32 %1 to i64
  %9 = getelementptr inbounds ptr, ptr %7, i64 %8
  %10 = load ptr, ptr %9, align 8
  %11 = load i16, ptr %10, align 4
  %.not21 = icmp eq i16 %11, -1
  br i1 %.not21, label %._crit_edge, label %.lr.ph

.lr.ph:                                           ; preds = %5
  %12 = getelementptr inbounds nuw i8, ptr %0, i64 4
  br label %13

13:                                               ; preds = %.lr.ph, %33
  %14 = phi i16 [ %11, %.lr.ph ], [ %35, %33 ]
  %.022 = phi ptr [ %10, %.lr.ph ], [ %34, %33 ]
  %15 = sext i16 %14 to i32
  %16 = load i32, ptr %12, align 4
  %17 = icmp sgt i32 %16, %15
  br i1 %17, label %18, label %30

18:                                               ; preds = %13
  %19 = load i32, ptr %2, align 4
  %20 = add i32 %19, 1
  store i32 %20, ptr %2, align 4
  %21 = icmp slt i32 %19, %4
  br i1 %21, label %22, label %33

22:                                               ; preds = %18
  %23 = load i16, ptr %.022, align 4
  %24 = sext i16 %23 to i32
  %25 = sext i32 %19 to i64
  %26 = getelementptr inbounds %struct.regex_arc_t, ptr %3, i64 %25
  store i32 %24, ptr %26, align 4
  %27 = getelementptr inbounds nuw i8, ptr %.022, i64 4
  %28 = load i32, ptr %27, align 4
  %29 = getelementptr inbounds nuw i8, ptr %26, i64 4
  store i32 %28, ptr %29, align 4
  br label %33

30:                                               ; preds = %13
  %31 = getelementptr inbounds nuw i8, ptr %.022, i64 4
  %32 = load i32, ptr %31, align 4
  tail call fastcc void @traverse_lacons(ptr noundef nonnull %0, i32 noundef %32, ptr noundef %2, ptr noundef %3, i32 noundef %4)
  br label %33

33:                                               ; preds = %18, %22, %30
  %34 = getelementptr inbounds nuw i8, ptr %.022, i64 8
  %35 = load i16, ptr %34, align 4
  %.not = icmp eq i16 %35, -1
  br i1 %.not, label %._crit_edge, label %13, !llvm.loop !4

._crit_edge:                                      ; preds = %33, %5
  ret void
}